(lp0
(lp1
S'_PAD'
p2
aS'_EOS'
p3
aS'_UNK'
p4
aS'_GO'
p5
aS'you'
p6
aS'?'
p7
aS'there'
p8
aS'have'
p9
aS'for'
p10
aS'with'
p11
aS'a'
p12
aS'that'
p13
aS'let'
p14
aS'me'
p15
aS'your'
p16
aS'can'
p17
aS'and'
p18
aS'help'
p19
aS'number'
p20
aS','
p21
aS'full'
p22
aS'are'
p23
aS'in'
p24
aS'<num>'
p25
aS'<cur>'
p26
aS'dob'
p27
aS'referring'
p28
aS'few'
p29
aS'get'
p30
aS'please'
p31
aS'hey'
p32
aS'check'
p33
aS'to'
p34
aS'details'
p35
aS'sim'
p36
aS'good'
p37
aS'okay'
p38
aS'name'
p39
aS'discount'
p40
aS'plan'
p41
aS'data'
p42
aS'sorry'
p43
aS'look'
p44
aS'account'
p45
aS"'"
p46
aS'i'
p47
aS'morning'
p48
aS'mobile'
p49
aS's'
p50
aS'the'
p51
aS'hello'
p52
aa(dp53
g18
I16
sg3
I1
sg19
I17
sg20
I18
sg32
I30
sg37
I35
sg23
I21
sg9
I7
sg24
I22
sg16
I14
sg28
I26
sg10
I8
sg34
I32
sg33
I31
sg42
I40
sg8
I6
sg31
I29
sg21
I19
sg25
I23
sg29
I27
sg2
I0
sg35
I33
sg30
I28
sg6
I4
sg7
I5
sg15
I13
sg22
I20
sg38
I36
sg5
I3
sg13
I11
sg49
I47
sg4
I2
sg46
I44
sg40
I38
sg36
I34
sg14
I12
sg41
I39
sg11
I9
sg43
I41
sg44
I42
sg12
I10
sg45
I43
sg39
I37
sg27
I25
sg26
I24
sg48
I46
sg47
I45
sg50
I48
sg17
I15
sg51
I49
sg52
I50
sa(dp54
I0
g2
sI1
g3
sI2
g4
sI3
g5
sI4
g6
sI5
g7
sI6
g8
sI7
g9
sI8
g10
sI9
g11
sI10
g12
sI11
g13
sI12
g14
sI13
g15
sI14
g16
sI15
g17
sI16
g18
sI17
g19
sI18
g20
sI19
g21
sI20
g22
sI21
g23
sI22
g24
sI23
g25
sI24
g26
sI25
g27
sI26
g28
sI27
g29
sI28
g30
sI29
g31
sI30
g32
sI31
g33
sI32
g34
sI33
g35
sI34
g36
sI35
g37
sI36
g38
sI37
g39
sI38
g40
sI39
g41
sI40
g42
sI41
g43
sI42
g44
sI43
g45
sI44
g46
sI45
g47
sI46
g48
sI47
g49
sI48
g50
sI49
g51
sI50
g52
sa.