(lp0
(lp1
S'_PAD'
p2
aS'_EOS'
p3
aS'_UNK'
p4
aS'i'
p5
aS'was'
p6
aS'hi'
p7
aS'and'
p8
aS'in'
p9
aS'<num>'
p10
aS'to'
p11
aS'a'
p12
aS'sim'
p13
aS'the'
p14
aS'<unk>'
p15
aS'just'
p16
aS'there'
p17
aS'that'
p18
aS'today'
p19
aS'not'
p20
aS'for'
p21
aS'my'
p22
aS'order'
p23
aS'live'
p24
aS'triple'
p25
aS'doing'
p26
aS'is'
p27
aS'am'
p28
aS'number'
p29
aS'an'
p30
aS'down'
p31
aS'dear'
p32
aS'as'
p33
aS'im'
p34
aS'have'
p35
aS'touch'
p36
aS'home'
p37
aS'saw'
p38
aS'its'
p39
aS'if'
p40
aS'finally'
p41
aS'upgrade'
p42
aS'deal'
p43
aS'service'
p44
aS'broadband'
p45
aS','
p46
aS'been'
p47
aS'current'
p48
aS'going'
p49
aS'wondering'
p50
aS'email'
p51
aS'told'
p52
aS'hey'
p53
aS'business'
p54
aS'get'
p55
aS'tenzin'
p56
aS'stolen'
p57
aS'but'
p58
aS'it'
p59
aS'plan'
p60
aS'chat'
p61
aS'believe'
p62
aS'data'
p63
aS'day'
p64
aS'card'
p65
aS'received'
p66
aS'days'
p67
aS'need'
p68
aS'could'
p69
aS'up'
p70
aS'n'
p71
aS'bad'
p72
aS'of'
p73
aS'following'
p74
aS'replacement'
p75
aa(dp76
g8
I6
sg42
I40
sg3
I1
sg35
I33
sg16
I14
sg70
I68
sg26
I24
sg27
I25
sg28
I26
sg29
I27
sg30
I28
sg31
I29
sg36
I34
sg33
I31
sg34
I32
sg25
I23
sg9
I7
sg32
I30
sg37
I35
sg38
I36
sg39
I37
sg40
I38
sg41
I39
sg43
I41
sg21
I19
sg45
I43
sg17
I15
sg24
I22
sg47
I45
sg10
I8
sg48
I46
sg11
I9
sg2
I0
sg49
I47
sg50
I48
sg55
I53
sg6
I4
sg51
I49
sg19
I17
sg52
I50
sg53
I51
sg54
I52
sg18
I16
sg56
I54
sg4
I2
sg58
I56
sg59
I57
sg64
I62
sg7
I5
sg60
I58
sg61
I59
sg20
I18
sg62
I60
sg63
I61
sg46
I44
sg65
I63
sg12
I10
sg66
I64
sg57
I55
sg44
I42
sg5
I3
sg68
I66
sg69
I67
sg67
I65
sg71
I69
sg72
I70
sg13
I11
sg73
I71
sg74
I72
sg14
I12
sg75
I73
sg22
I20
sg23
I21
sg15
I13
sa(dp77
I0
g2
sI1
g3
sI2
g4
sI3
g5
sI4
g6
sI5
g7
sI6
g8
sI7
g9
sI8
g10
sI9
g11
sI10
g12
sI11
g13
sI12
g14
sI13
g15
sI14
g16
sI15
g17
sI16
g18
sI17
g19
sI18
g20
sI19
g21
sI20
g22
sI21
g23
sI22
g24
sI23
g25
sI24
g26
sI25
g27
sI26
g28
sI27
g29
sI28
g30
sI29
g31
sI30
g32
sI31
g33
sI32
g34
sI33
g35
sI34
g36
sI35
g37
sI36
g38
sI37
g39
sI38
g40
sI39
g41
sI40
g42
sI41
g43
sI42
g44
sI43
g45
sI44
g46
sI45
g47
sI46
g48
sI47
g49
sI48
g50
sI49
g51
sI50
g52
sI51
g53
sI52
g54
sI53
g55
sI54
g56
sI55
g57
sI56
g58
sI57
g59
sI58
g60
sI59
g61
sI60
g62
sI61
g63
sI62
g64
sI63
g65
sI64
g66
sI65
g67
sI66
g68
sI67
g69
sI68
g70
sI69
g71
sI70
g72
sI71
g73
sI72
g74
sI73
g75
sa.